target datalayout = "e-m:e-p270:32:32-p271:32:32-p272:64:64-i64:64-i128:128-f80:128-n8:16:32:64-S128"
target triple = "x86_64-pc-linux-gnu"

; Function Attrs: inlinehint mustprogress uwtable
define linkonce_odr noundef nonnull align 8 dereferenceable(64) ptr @_ZN6icu_7713UnicodeString6appendEDs(ptr noundef nonnull align 8 dereferenceable(64) %0, i16 noundef zeroext %1) #2 comdat align 2 {
  %3 = alloca ptr, align 8
  %4 = alloca i16, align 2
  store ptr %0, ptr %3, align 8, !tbaa !8
  store i16 %1, ptr %4, align 2, !tbaa !12
  %5 = load ptr, ptr %3, align 8
  %6 = call noundef nonnull align 8 dereferenceable(64) ptr @_ZN6icu_7713UnicodeString8doAppendEPKDsii(ptr noundef nonnull align 8 dereferenceable(64) %5, ptr noundef %4, i32 noundef 0, i32 noundef 1)
  ret ptr %6
}

; Function Attrs: mustprogress uwtable
define internal noundef nonnull align 8 dereferenceable(64) ptr @_ZN6icu_77L12appendMillisEdRNS_13UnicodeStringE(double noundef %0, ptr noundef nonnull align 8 dereferenceable(64) %1) #1 {
  %3 = alloca double, align 8
  %4 = alloca ptr, align 8
  %5 = alloca i8, align 1
  %6 = alloca [20 x i32], align 16
  %7 = alloca i32, align 4
  %8 = alloca i64, align 8
  store double %0, ptr %3, align 8, !tbaa !77
  store ptr %1, ptr %4, align 8, !tbaa !8
  call void @llvm.lifetime.start.p0(i64 1, ptr %5) #11
  store i8 0, ptr %5, align 1, !tbaa !28
  call void @llvm.lifetime.start.p0(i64 80, ptr %6) #11
  call void @llvm.lifetime.start.p0(i64 4, ptr %7) #11
  call void @llvm.lifetime.start.p0(i64 8, ptr %8) #11
  %9 = load double, ptr %3, align 8, !tbaa !77
  %10 = fcmp olt double %9, 0xC384763B62073280
  br i1 %10, label %11, label %12

11:                                               ; preds = %2
  store i64 -184303902528000000, ptr %8, align 8, !tbaa !135
  br label %20

12:                                               ; preds = %2
  %13 = load double, ptr %3, align 8, !tbaa !77
  %14 = fcmp ogt double %13, 0x43846A3EDDF8CD80
  br i1 %14, label %15, label %16

15:                                               ; preds = %12
  store i64 183882168921600000, ptr %8, align 8, !tbaa !135
  br label %19

16:                                               ; preds = %12
  %17 = load double, ptr %3, align 8, !tbaa !77
  %18 = fptosi double %17 to i64
  store i64 %18, ptr %8, align 8, !tbaa !135
  br label %19

19:                                               ; preds = %16, %15
  br label %20

20:                                               ; preds = %19, %11
  %21 = load i64, ptr %8, align 8, !tbaa !135
  %22 = icmp slt i64 %21, 0
  br i1 %22, label %23, label %26

23:                                               ; preds = %20
  store i8 1, ptr %5, align 1, !tbaa !28
  %24 = load i64, ptr %8, align 8, !tbaa !135
  %25 = mul nsw i64 %24, -1
  store i64 %25, ptr %8, align 8, !tbaa !135
  br label %26

26:                                               ; preds = %23, %20
  store i32 0, ptr %7, align 4, !tbaa !18
  br label %27

27:                                               ; preds = %37, %26
  %28 = load i64, ptr %8, align 8, !tbaa !135
  %29 = srem i64 %28, 10
  %30 = trunc i64 %29 to i32
  %31 = load i32, ptr %7, align 4, !tbaa !18
  %32 = add nsw i32 %31, 1
  store i32 %32, ptr %7, align 4, !tbaa !18
  %33 = sext i32 %31 to i64
  %34 = getelementptr inbounds [20 x i32], ptr %6, i64 0, i64 %33
  store i32 %30, ptr %34, align 4, !tbaa !18
  %35 = load i64, ptr %8, align 8, !tbaa !135
  %36 = sdiv i64 %35, 10
  store i64 %36, ptr %8, align 8, !tbaa !135
  br label %37

37:                                               ; preds = %27
  %38 = load i64, ptr %8, align 8, !tbaa !135
  %39 = icmp ne i64 %38, 0
  br i1 %39, label %27, label %40, !llvm.loop !137

40:                                               ; preds = %37
  %41 = load i8, ptr %5, align 1, !tbaa !28
  %42 = icmp ne i8 %41, 0
  br i1 %42, label %43, label %46

43:                                               ; preds = %40
  %44 = load ptr, ptr %4, align 8, !tbaa !8
  %45 = call noundef nonnull align 8 dereferenceable(64) ptr @_ZN6icu_7713UnicodeString6appendEDs(ptr noundef nonnull align 8 dereferenceable(64) %44, i16 noundef zeroext 45)
  br label %46

46:                                               ; preds = %43, %40
  %47 = load i32, ptr %7, align 4, !tbaa !18
  %48 = add nsw i32 %47, -1
  store i32 %48, ptr %7, align 4, !tbaa !18
  br label %49

49:                                               ; preds = %52, %46
  %50 = load i32, ptr %7, align 4, !tbaa !18
  %51 = icmp sge i32 %50, 0
  br i1 %51, label %52, label %62

52:                                               ; preds = %49
  %53 = load ptr, ptr %4, align 8, !tbaa !8
  %54 = load i32, ptr %7, align 4, !tbaa !18
  %55 = add nsw i32 %54, -1
  store i32 %55, ptr %7, align 4, !tbaa !18
  %56 = sext i32 %54 to i64
  %57 = getelementptr inbounds [20 x i32], ptr %6, i64 0, i64 %56
  %58 = load i32, ptr %57, align 4, !tbaa !18
  %59 = add nsw i32 %58, 48
  %60 = trunc i32 %59 to i16
  %61 = call noundef nonnull align 8 dereferenceable(64) ptr @_ZN6icu_7713UnicodeString6appendEDs(ptr noundef nonnull align 8 dereferenceable(64) %53, i16 noundef zeroext %60)
  br label %49, !llvm.loop !138

62:                                               ; preds = %49
  %63 = load ptr, ptr %4, align 8, !tbaa !8
  call void @llvm.lifetime.end.p0(i64 8, ptr %8) #11
  call void @llvm.lifetime.end.p0(i64 4, ptr %7) #11
  call void @llvm.lifetime.end.p0(i64 80, ptr %6) #11
  call void @llvm.lifetime.end.p0(i64 1, ptr %5) #11
  ret ptr %63
}