; Function Attrs: mustprogress uwtable
define internal fastcc noundef nonnull align 8 dereferenceable(64) ptr @_ZN6icu_77L12appendMillisEdRNS_13UnicodeStringE(double noundef %0, ptr noundef nonnull returned align 8 dereferenceable(64) %1) unnamed_addr #2 {
  %3 = alloca i16, align 2
  %4 = alloca i16, align 2
  %5 = alloca [20 x i32], align 16
  call void @llvm.lifetime.start.p0(i64 80, ptr nonnull %5) #16
  %6 = fcmp olt double %0, 0xC384763B62073280
  br i1 %6, label %11, label %7

7:                                                ; preds = %2
  %8 = fcmp ogt double %0, 0x43846A3EDDF8CD80
  br i1 %8, label %11, label %9

9:                                                ; preds = %7
  %10 = fptosi double %0 to i64
  br label %11

11:                                               ; preds = %7, %2, %9
  %.0 = phi i64 [ %10, %9 ], [ -184303902528000000, %2 ], [ 183882168921600000, %7 ]
  %spec.select = tail call i64 @llvm.abs.i64(i64 %.0, i1 true)
  br label %12

12:                                               ; preds = %12, %11
  %indvars.iv = phi i64 [ %indvars.iv.next, %12 ], [ 0, %11 ]
  %.2 = phi i64 [ %16, %12 ], [ %spec.select, %11 ]
  %13 = urem i64 %.2, 10
  %14 = trunc nuw nsw i64 %13 to i32
  %indvars.iv.next = add nuw nsw i64 %indvars.iv, 1
  %15 = getelementptr inbounds nuw [20 x i32], ptr %5, i64 0, i64 %indvars.iv
  store i32 %14, ptr %15, align 4, !tbaa !42
  %16 = udiv i64 %.2, 10
  %.not = icmp samesign ult i64 %.2, 10
  br i1 %.not, label %17, label %12, !llvm.loop !74

17:                                               ; preds = %12
  %18 = icmp sgt i64 %.0, -1
  br i1 %18, label %.lr.ph.preheader, label %19

19:                                               ; preds = %17
  call void @llvm.lifetime.start.p0(i64 2, ptr nonnull %4)
  store i16 45, ptr %4, align 2, !tbaa !10
  %20 = call noundef nonnull align 8 dereferenceable(64) ptr @_ZN6icu_7713UnicodeString8doAppendEPKDsii(ptr noundef nonnull align 8 dereferenceable(64) %1, ptr noundef nonnull %4, i32 noundef 0, i32 noundef 1)
  call void @llvm.lifetime.end.p0(i64 2, ptr nonnull %4)
  br label %.lr.ph.preheader

.lr.ph.preheader:                                 ; preds = %17, %19
  br label %.lr.ph

.lr.ph:                                           ; preds = %.lr.ph.preheader, %.lr.ph
  %indvars.iv22 = phi i64 [ %indvars.iv.next23, %.lr.ph ], [ %indvars.iv, %.lr.ph.preheader ]
  %indvars.iv.next23 = add nsw i64 %indvars.iv22, -1
  %21 = getelementptr inbounds nuw [20 x i32], ptr %5, i64 0, i64 %indvars.iv22
  %22 = load i32, ptr %21, align 4, !tbaa !42
  %23 = trunc i32 %22 to i16
  %24 = add i16 %23, 48
  call void @llvm.lifetime.start.p0(i64 2, ptr nonnull %3)
  store i16 %24, ptr %3, align 2, !tbaa !10
  %25 = call noundef nonnull align 8 dereferenceable(64) ptr @_ZN6icu_7713UnicodeString8doAppendEPKDsii(ptr noundef nonnull align 8 dereferenceable(64) %1, ptr noundef nonnull %3, i32 noundef 0, i32 noundef 1)
  call void @llvm.lifetime.end.p0(i64 2, ptr nonnull %3)
  %26 = icmp sgt i64 %indvars.iv22, 0
  br i1 %26, label %.lr.ph, label %._crit_edge, !llvm.loop !75

._crit_edge:                                      ; preds = %.lr.ph
  call void @llvm.lifetime.end.p0(i64 80, ptr nonnull %5) #16
  ret ptr %1
}